; Function Attrs: nounwind uwtable
define noalias noundef ptr @Gia_ManSaveValue(ptr noundef readonly captures(none) %0) local_unnamed_addr #2 {
  %2 = getelementptr i8, ptr %0, i64 24
  %.val = load i32, ptr %2, align 8
  %3 = tail call noalias dereferenceable_or_null(16) ptr @malloc(i64 noundef 16) #40
  %4 = add i32 %.val, -1
  %or.cond.i = icmp ult i32 %4, 15
  %spec.store.select.i = select i1 %or.cond.i, i32 16, i32 %.val
  %5 = getelementptr inbounds nuw i8, ptr %3, i64 4
  store i32 0, ptr %5, align 4
  store i32 %spec.store.select.i, ptr %3, align 8
  %.not.i = icmp eq i32 %spec.store.select.i, 0
  br i1 %.not.i, label %Vec_IntAlloc.exit, label %6

6:                                                ; preds = %1
  %7 = sext i32 %spec.store.select.i to i64
  %8 = shl nsw i64 %7, 2
  %9 = tail call noalias ptr @malloc(i64 noundef %8) #40
  br label %Vec_IntAlloc.exit

Vec_IntAlloc.exit:                                ; preds = %1, %6
  %10 = phi ptr [ %9, %6 ], [ null, %1 ]
  %11 = getelementptr inbounds nuw i8, ptr %3, i64 8
  store ptr %10, ptr %11, align 8
  %12 = getelementptr i8, ptr %0, i64 32
  %13 = icmp sgt i32 %.val, 0
  br i1 %13, label %.lr.ph, label %.critedge

.lr.ph:                                           ; preds = %Vec_IntAlloc.exit, %Vec_IntPush.exit
  %indvars.iv = phi i64 [ %indvars.iv.next, %Vec_IntPush.exit ], [ 0, %Vec_IntAlloc.exit ]
  %.val9 = load ptr, ptr %12, align 8
  %.not = icmp eq ptr %.val9, null
  br i1 %.not, label %.critedge, label %14

14:                                               ; preds = %.lr.ph
  %15 = getelementptr inbounds nuw %struct.Gia_Obj_t_, ptr %.val9, i64 %indvars.iv, i32 1
  %16 = load i32, ptr %15, align 4
  %17 = load i32, ptr %5, align 4
  %18 = load i32, ptr %3, align 8
  %19 = icmp eq i32 %17, %18
  br i1 %19, label %20, label %.Vec_IntGrow.exit10_crit_edge.i

.Vec_IntGrow.exit10_crit_edge.i:                  ; preds = %14
  %.pre.i = load ptr, ptr %11, align 8
  br label %Vec_IntPush.exit

20:                                               ; preds = %14
  %21 = icmp slt i32 %17, 16
  br i1 %21, label %22, label %29

22:                                               ; preds = %20
  %23 = load ptr, ptr %11, align 8
  %.not9.i.i = icmp eq ptr %23, null
  br i1 %.not9.i.i, label %26, label %24

24:                                               ; preds = %22
  %25 = tail call dereferenceable_or_null(64) ptr @realloc(ptr noundef nonnull %23, i64 noundef 64) #39
  br label %Vec_IntGrow.exit.i

26:                                               ; preds = %22
  %27 = tail call noalias dereferenceable_or_null(64) ptr @malloc(i64 noundef 64) #40
  br label %Vec_IntGrow.exit.i

Vec_IntGrow.exit.i:                               ; preds = %26, %24
  %28 = phi ptr [ %25, %24 ], [ %27, %26 ]
  store ptr %28, ptr %11, align 8
  store i32 16, ptr %3, align 8
  br label %Vec_IntPush.exit

29:                                               ; preds = %20
  %30 = shl nuw nsw i32 %17, 1
  %31 = load ptr, ptr %11, align 8
  %.not9.i9.i = icmp eq ptr %31, null
  %32 = zext nneg i32 %30 to i64
  %33 = shl nuw nsw i64 %32, 2
  br i1 %.not9.i9.i, label %36, label %34

34:                                               ; preds = %29
  %35 = tail call ptr @realloc(ptr noundef nonnull %31, i64 noundef %33) #39
  br label %38

36:                                               ; preds = %29
  %37 = tail call noalias ptr @malloc(i64 noundef %33) #40
  br label %38

38:                                               ; preds = %36, %34
  %39 = phi ptr [ %35, %34 ], [ %37, %36 ]
  store ptr %39, ptr %11, align 8
  store i32 %30, ptr %3, align 8
  br label %Vec_IntPush.exit

Vec_IntPush.exit:                                 ; preds = %.Vec_IntGrow.exit10_crit_edge.i, %Vec_IntGrow.exit.i, %38
  %40 = phi ptr [ %.pre.i, %.Vec_IntGrow.exit10_crit_edge.i ], [ %39, %38 ], [ %28, %Vec_IntGrow.exit.i ]
  %41 = add nsw i32 %17, 1
  store i32 %41, ptr %5, align 4
  %42 = sext i32 %17 to i64
  %43 = getelementptr inbounds i32, ptr %40, i64 %42
  store i32 %16, ptr %43, align 4
  %indvars.iv.next = add nuw nsw i64 %indvars.iv, 1
  %44 = load i32, ptr %2, align 8
  %45 = sext i32 %44 to i64
  %46 = icmp slt i64 %indvars.iv.next, %45
  br i1 %46, label %.lr.ph, label %.critedge, !llvm.loop !66

.critedge:                                        ; preds = %.lr.ph, %Vec_IntPush.exit, %Vec_IntAlloc.exit
  ret ptr %3
}